; Function Attrs: mustprogress uwtable
define void @_ZN7rocksdb18ImmutableDBOptionsC2Ev(ptr noundef nonnull align 8 dereferenceable(600) %0) unnamed_addr #6 align 2 personality ptr @__gxx_personality_v0 {
  %2 = alloca %"struct.rocksdb::Options", align 8
  call void @llvm.lifetime.start.p0(i64 1544, ptr nonnull %2) #27
  call void @_ZN7rocksdb9DBOptionsC2Ev(ptr noundef nonnull align 8 dereferenceable(1544) %2)
  %3 = getelementptr inbounds nuw i8, ptr %2, i64 712
  invoke void @_ZN7rocksdb19ColumnFamilyOptionsC2Ev(ptr noundef nonnull align 8 dereferenceable(832) %3)
          to label %_ZN7rocksdb7OptionsC2Ev.exit unwind label %4

common.resume:                                    ; preds = %7, %4
  %common.resume.op = phi { ptr, i32 } [ %5, %4 ], [ %8, %7 ]
  resume { ptr, i32 } %common.resume.op

4:                                                ; preds = %1
  %5 = landingpad { ptr, i32 }
          cleanup
  call void @_ZN7rocksdb9DBOptionsD2Ev(ptr noundef nonnull align 8 dereferenceable(1544) %2) #27
  br label %common.resume

_ZN7rocksdb7OptionsC2Ev.exit:                     ; preds = %1
  invoke void @_ZN7rocksdb18ImmutableDBOptionsC2ERKNS_9DBOptionsE(ptr noundef nonnull align 8 dereferenceable(600) %0, ptr noundef nonnull align 8 dereferenceable(706) %2)
          to label %6 unwind label %7

6:                                                ; preds = %_ZN7rocksdb7OptionsC2Ev.exit
  call void @_ZN7rocksdb19ColumnFamilyOptionsD2Ev(ptr noundef nonnull align 8 dereferenceable(832) %3) #27
  call void @_ZN7rocksdb9DBOptionsD2Ev(ptr noundef nonnull align 8 dereferenceable(1544) %2) #27
  call void @llvm.lifetime.end.p0(i64 1544, ptr nonnull %2) #27
  ret void

7:                                                ; preds = %_ZN7rocksdb7OptionsC2Ev.exit
  %8 = landingpad { ptr, i32 }
          cleanup
  call void @_ZN7rocksdb19ColumnFamilyOptionsD2Ev(ptr noundef nonnull align 8 dereferenceable(832) %3) #27
  call void @_ZN7rocksdb9DBOptionsD2Ev(ptr noundef nonnull align 8 dereferenceable(1544) %2) #27
  call void @llvm.lifetime.end.p0(i64 1544, ptr nonnull %2) #27
  br label %common.resume
}